target datalayout = "e-m:e-p270:32:32-p271:32:32-p272:64:64-i64:64-i128:128-f80:128-n8:16:32:64-S128"
target triple = "x86_64-pc-linux-gnu"

%struct.llama_model = type { i32, i32, %"class.std::__cxx11::basic_string", %struct.llama_hparams, %struct.llama_vocab, ptr, ptr, ptr, ptr, ptr, ptr, ptr, ptr, ptr, ptr, ptr, ptr, ptr, ptr, ptr, ptr, %"class.std::vector", %struct.llama_model_params, %"class.std::unordered_map", %"class.std::vector.18", %"class.std::vector.23", i64, i64, %"class.std::unique_ptr.28" }
%"class.std::__cxx11::basic_string" = type { %"struct.std::__cxx11::basic_string<char>::_Alloc_hider", i64, %union.anon }
%"struct.std::__cxx11::basic_string<char>::_Alloc_hider" = type { ptr }
%union.anon = type { i64, [8 x i8] }
%struct.llama_hparams = type { i8, i8, i8, i8, i32, i32, i32, i32, i32, i32, i32, i32, i32, i32, i32, %struct.llama_hparams_posnet, %struct.llama_hparams_convnext, %"struct.std::array", %"struct.std::array", %"struct.std::array", i32, i32, i32, i32, i32, i32, i32, float, i8, i32, float, float, float, float, float, i32, i32, i32, i32, i32, float, float, float, i32, float, %"struct.std::array.6", i32, i32, i32, i32, i8, float, float, float, float, float, float, i8, i8, i8, i32, i32, i32, i32 }
%struct.llama_hparams_posnet = type { i32, i32 }
%struct.llama_hparams_convnext = type { i32, i32 }
%"struct.std::array" = type { [512 x i32] }
%"struct.std::array.6" = type { [4 x i32] }
%struct.llama_vocab = type { %"class.std::unique_ptr" }
%"class.std::unique_ptr" = type { %"struct.std::__uniq_ptr_data" }
%"struct.std::__uniq_ptr_data" = type { %"class.std::__uniq_ptr_impl" }
%"class.std::__uniq_ptr_impl" = type { %"class.std::tuple" }
%"class.std::tuple" = type { %"struct.std::_Tuple_impl" }
%"struct.std::_Tuple_impl" = type { %"struct.std::_Head_base.8" }
%"struct.std::_Head_base.8" = type { ptr }
%"class.std::vector" = type { %"struct.std::_Vector_base" }
%"struct.std::_Vector_base" = type { %"struct.std::_Vector_base<llama_layer, std::allocator<llama_layer>>::_Vector_impl" }
%"struct.std::_Vector_base<llama_layer, std::allocator<llama_layer>>::_Vector_impl" = type { %"struct.std::_Vector_base<llama_layer, std::allocator<llama_layer>>::_Vector_impl_data" }
%"struct.std::_Vector_base<llama_layer, std::allocator<llama_layer>>::_Vector_impl_data" = type { ptr, ptr, ptr }
%struct.llama_model_params = type { ptr, i32, i32, i32, ptr, ptr, ptr, ptr, i8, i8, i8, i8 }
%"class.std::unordered_map" = type { %"class.std::_Hashtable" }
%"class.std::_Hashtable" = type { ptr, i64, %"struct.std::__detail::_Hash_node_base", i64, %"struct.std::__detail::_Prime_rehash_policy", ptr }
%"struct.std::__detail::_Hash_node_base" = type { ptr }
%"struct.std::__detail::_Prime_rehash_policy" = type { float, i64 }
%"class.std::vector.18" = type { %"struct.std::_Vector_base.19" }
%"struct.std::_Vector_base.19" = type { %"struct.std::_Vector_base<ggml_backend_device *, std::allocator<ggml_backend_device *>>::_Vector_impl" }
%"struct.std::_Vector_base<ggml_backend_device *, std::allocator<ggml_backend_device *>>::_Vector_impl" = type { %"struct.std::_Vector_base<ggml_backend_device *, std::allocator<ggml_backend_device *>>::_Vector_impl_data" }
%"struct.std::_Vector_base<ggml_backend_device *, std::allocator<ggml_backend_device *>>::_Vector_impl_data" = type { ptr, ptr, ptr }
%"class.std::vector.23" = type { %"struct.std::_Vector_base.24" }
%"struct.std::_Vector_base.24" = type { %"struct.std::_Vector_base<std::pair<std::__cxx11::basic_string<char>, ggml_tensor *>, std::allocator<std::pair<std::__cxx11::basic_string<char>, ggml_tensor *>>>::_Vector_impl" }
%"struct.std::_Vector_base<std::pair<std::__cxx11::basic_string<char>, ggml_tensor *>, std::allocator<std::pair<std::__cxx11::basic_string<char>, ggml_tensor *>>>::_Vector_impl" = type { %"struct.std::_Vector_base<std::pair<std::__cxx11::basic_string<char>, ggml_tensor *>, std::allocator<std::pair<std::__cxx11::basic_string<char>, ggml_tensor *>>>::_Vector_impl_data" }
%"struct.std::_Vector_base<std::pair<std::__cxx11::basic_string<char>, ggml_tensor *>, std::allocator<std::pair<std::__cxx11::basic_string<char>, ggml_tensor *>>>::_Vector_impl_data" = type { ptr, ptr, ptr }
%"class.std::unique_ptr.28" = type { %"struct.std::__uniq_ptr_data.29" }
%"struct.std::__uniq_ptr_data.29" = type { %"class.std::__uniq_ptr_impl.30" }
%"class.std::__uniq_ptr_impl.30" = type { %"class.std::tuple.31" }
%"class.std::tuple.31" = type { %"struct.std::_Tuple_impl.32" }
%"struct.std::_Tuple_impl.32" = type { %"struct.std::_Head_base.35" }
%"struct.std::_Head_base.35" = type { ptr }

@.str.70 = private unnamed_addr constant [117 x i8] c"generated/home/dtcxzyw/WorkSpace/Projects/compilers/llvm-opt-benchmark/bench/llama.cpp/llama.cpp/src/llama-model.cpp\00", align 1
@.str.99 = private unnamed_addr constant [21 x i8] c"unknown architecture\00", align 1

; Function Attrs: mustprogress uwtable
define i32 @llama_model_rope_type(ptr noundef %0) #4 {
  %2 = alloca i32, align 4
  %3 = alloca ptr, align 8
  store ptr %0, ptr %3, align 8, !tbaa !23
  %4 = load ptr, ptr %3, align 8, !tbaa !23
  %5 = getelementptr inbounds nuw %struct.llama_model, ptr %4, i32 0, i32 1
  %6 = load i32, ptr %5, align 4, !tbaa !86
  switch i32 %6, label %12 [
    i32 5, label %7
    i32 6, label %7
    i32 8, label %7
    i32 10, label %7
    i32 14, label %7
    i32 32, label %7
    i32 13, label %7
    i32 46, label %7
    i32 47, label %7
    i32 48, label %7
    i32 51, label %7
    i32 52, label %7
    i32 56, label %7
    i32 0, label %8
    i32 1, label %8
    i32 3, label %8
    i32 9, label %8
    i32 23, label %8
    i32 25, label %8
    i32 26, label %8
    i32 27, label %8
    i32 33, label %8
    i32 34, label %8
    i32 35, label %8
    i32 37, label %8
    i32 41, label %8
    i32 42, label %8
    i32 43, label %8
    i32 44, label %8
    i32 53, label %8
    i32 54, label %8
    i32 55, label %8
    i32 2, label %9
    i32 4, label %9
    i32 36, label %9
    i32 11, label %9
    i32 12, label %9
    i32 15, label %9
    i32 45, label %9
    i32 16, label %9
    i32 17, label %9
    i32 18, label %9
    i32 38, label %9
    i32 39, label %9
    i32 20, label %9
    i32 21, label %9
    i32 22, label %9
    i32 29, label %9
    i32 30, label %9
    i32 31, label %9
    i32 40, label %9
    i32 7, label %9
    i32 24, label %9
    i32 49, label %9
    i32 50, label %9
    i32 28, label %9
    i32 19, label %10
    i32 57, label %11
  ]

7:                                                ; preds = %1, %1, %1, %1, %1, %1, %1, %1, %1, %1, %1, %1, %1
  store i32 -1, ptr %2, align 4
  br label %13

8:                                                ; preds = %1, %1, %1, %1, %1, %1, %1, %1, %1, %1, %1, %1, %1, %1, %1, %1, %1, %1, %1
  store i32 0, ptr %2, align 4
  br label %13

9:                                                ; preds = %1, %1, %1, %1, %1, %1, %1, %1, %1, %1, %1, %1, %1, %1, %1, %1, %1, %1, %1, %1, %1, %1, %1, %1
  store i32 2, ptr %2, align 4
  br label %13

10:                                               ; preds = %1
  store i32 8, ptr %2, align 4
  br label %13

11:                                               ; preds = %1
  call void (ptr, i32, ptr, ...) @ggml_abort(ptr noundef @.str.70, i32 noundef 3933, ptr noundef @.str.99) #22
  unreachable

12:                                               ; preds = %1
  store i32 -1, ptr %2, align 4
  br label %13

13:                                               ; preds = %12, %10, %9, %8, %7
  %14 = load i32, ptr %2, align 4
  ret i32 %14
}